; Function Attrs: mustprogress nofree norecurse nosync nounwind willreturn memory(read, argmem: readwrite, inaccessiblemem: none) uwtable
define internal void @spl_filesystem_dir_it_current_key(ptr nocapture noundef readonly %0, ptr nocapture noundef writeonly %1) #14 {
  %3 = getelementptr i8, ptr %0, i64 104
  %.val = load ptr, ptr %3, align 8
  %4 = getelementptr inbounds i8, ptr %.val, i64 88
  %5 = load i32, ptr %4, align 8
  %6 = sext i32 %5 to i64
  store i64 %6, ptr %1, align 8
  %7 = getelementptr inbounds i8, ptr %1, i64 8
  store i32 4, ptr %7, align 8
  ret void
}